target datalayout = "e-m:e-p270:32:32-p271:32:32-p272:64:64-i64:64-i128:128-f80:128-n8:16:32:64-S128"
target triple = "x86_64-pc-linux-gnu"

%struct.AVComplexFloat = type { float, float }
%struct.AVTXContext = type { i32, i32, ptr, ptr, ptr, ptr, [4 x ptr], i32, [4 x ptr], ptr, i32, i64, i32, float, double, ptr }

; Function Attrs: nounwind uwtable
define internal void @ff_tx_fft_inplace_float_c(ptr noundef %0, ptr noundef %1, ptr noundef %2, i64 noundef %3) #4 {
  %5 = alloca ptr, align 8
  %6 = alloca ptr, align 8
  %7 = alloca ptr, align 8
  %8 = alloca i64, align 8
  %9 = alloca ptr, align 8
  %10 = alloca ptr, align 8
  %11 = alloca %struct.AVComplexFloat, align 4
  %12 = alloca ptr, align 8
  %13 = alloca ptr, align 8
  %14 = alloca i32, align 4
  %15 = alloca i32, align 4
  %16 = alloca %struct.AVComplexFloat, align 4
  store ptr %0, ptr %5, align 8, !tbaa !17
  store ptr %1, ptr %6, align 8, !tbaa !8
  store ptr %2, ptr %7, align 8, !tbaa !8
  store i64 %3, ptr %8, align 8, !tbaa !30
  call void @llvm.lifetime.start.p0(i64 8, ptr %9) #10
  %17 = load ptr, ptr %7, align 8, !tbaa !8
  store ptr %17, ptr %9, align 8, !tbaa !60
  call void @llvm.lifetime.start.p0(i64 8, ptr %10) #10
  %18 = load ptr, ptr %6, align 8, !tbaa !8
  store ptr %18, ptr %10, align 8, !tbaa !60
  call void @llvm.lifetime.start.p0(i64 8, ptr %11) #10
  call void @llvm.lifetime.start.p0(i64 8, ptr %12) #10
  %19 = load ptr, ptr %5, align 8, !tbaa !17
  %20 = getelementptr inbounds nuw %struct.AVTXContext, ptr %19, i32 0, i32 5
  %21 = load ptr, ptr %20, align 8, !tbaa !68
  %22 = getelementptr inbounds nuw %struct.AVTXContext, ptr %21, i32 0, i32 2
  %23 = load ptr, ptr %22, align 8, !tbaa !69
  store ptr %23, ptr %12, align 8, !tbaa !19
  call void @llvm.lifetime.start.p0(i64 8, ptr %13) #10
  %24 = load ptr, ptr %5, align 8, !tbaa !17
  %25 = getelementptr inbounds nuw %struct.AVTXContext, ptr %24, i32 0, i32 2
  %26 = load ptr, ptr %25, align 8, !tbaa !69
  store ptr %26, ptr %13, align 8, !tbaa !19
  call void @llvm.lifetime.start.p0(i64 4, ptr %14) #10
  call void @llvm.lifetime.start.p0(i64 4, ptr %15) #10
  %27 = load ptr, ptr %13, align 8, !tbaa !19
  %28 = getelementptr inbounds nuw i32, ptr %27, i32 1
  store ptr %28, ptr %13, align 8, !tbaa !19
  %29 = load i32, ptr %27, align 4, !tbaa !4
  store i32 %29, ptr %14, align 4, !tbaa !4
  br label %30

30:                                               ; preds = %66, %4
  %31 = load ptr, ptr %9, align 8, !tbaa !60
  %32 = load i32, ptr %14, align 4, !tbaa !4
  %33 = sext i32 %32 to i64
  %34 = getelementptr inbounds %struct.AVComplexFloat, ptr %31, i64 %33
  call void @llvm.memcpy.p0.p0.i64(ptr align 4 %11, ptr align 4 %34, i64 8, i1 false), !tbaa.struct !35
  %35 = load ptr, ptr %12, align 8, !tbaa !19
  %36 = load i32, ptr %14, align 4, !tbaa !4
  %37 = sext i32 %36 to i64
  %38 = getelementptr inbounds i32, ptr %35, i64 %37
  %39 = load i32, ptr %38, align 4, !tbaa !4
  store i32 %39, ptr %15, align 4, !tbaa !4
  br label %40

40:                                               ; preds = %57, %30
  br label %41

41:                                               ; preds = %40
  call void @llvm.lifetime.start.p0(i64 8, ptr %16) #10
  %42 = load ptr, ptr %9, align 8, !tbaa !60
  %43 = load i32, ptr %15, align 4, !tbaa !4
  %44 = sext i32 %43 to i64
  %45 = getelementptr inbounds %struct.AVComplexFloat, ptr %42, i64 %44
  call void @llvm.memcpy.p0.p0.i64(ptr align 4 %16, ptr align 4 %45, i64 8, i1 false), !tbaa.struct !35
  %46 = load ptr, ptr %9, align 8, !tbaa !60
  %47 = load i32, ptr %15, align 4, !tbaa !4
  %48 = sext i32 %47 to i64
  %49 = getelementptr inbounds %struct.AVComplexFloat, ptr %46, i64 %48
  call void @llvm.memcpy.p0.p0.i64(ptr align 4 %49, ptr align 4 %11, i64 8, i1 false), !tbaa.struct !35
  call void @llvm.memcpy.p0.p0.i64(ptr align 4 %11, ptr align 4 %16, i64 8, i1 false), !tbaa.struct !35
  call void @llvm.lifetime.end.p0(i64 8, ptr %16) #10
  br label %50

50:                                               ; preds = %41
  br label %51

51:                                               ; preds = %50
  %52 = load ptr, ptr %12, align 8, !tbaa !19
  %53 = load i32, ptr %15, align 4, !tbaa !4
  %54 = sext i32 %53 to i64
  %55 = getelementptr inbounds i32, ptr %52, i64 %54
  %56 = load i32, ptr %55, align 4, !tbaa !4
  store i32 %56, ptr %15, align 4, !tbaa !4
  br label %57

57:                                               ; preds = %51
  %58 = load i32, ptr %15, align 4, !tbaa !4
  %59 = load i32, ptr %14, align 4, !tbaa !4
  %60 = icmp ne i32 %58, %59
  br i1 %60, label %40, label %61, !llvm.loop !73

61:                                               ; preds = %57
  %62 = load ptr, ptr %9, align 8, !tbaa !60
  %63 = load i32, ptr %15, align 4, !tbaa !4
  %64 = sext i32 %63 to i64
  %65 = getelementptr inbounds %struct.AVComplexFloat, ptr %62, i64 %64
  call void @llvm.memcpy.p0.p0.i64(ptr align 4 %65, ptr align 4 %11, i64 8, i1 false), !tbaa.struct !35
  br label %66

66:                                               ; preds = %61
  %67 = load ptr, ptr %13, align 8, !tbaa !19
  %68 = getelementptr inbounds nuw i32, ptr %67, i32 1
  store ptr %68, ptr %13, align 8, !tbaa !19
  %69 = load i32, ptr %67, align 4, !tbaa !4
  store i32 %69, ptr %14, align 4, !tbaa !4
  %70 = icmp ne i32 %69, 0
  br i1 %70, label %30, label %71, !llvm.loop !74

71:                                               ; preds = %66
  %72 = load ptr, ptr %5, align 8, !tbaa !17
  %73 = getelementptr inbounds nuw %struct.AVTXContext, ptr %72, i32 0, i32 6
  %74 = getelementptr inbounds [4 x ptr], ptr %73, i64 0, i64 0
  %75 = load ptr, ptr %74, align 8, !tbaa !8
  %76 = load ptr, ptr %5, align 8, !tbaa !17
  %77 = getelementptr inbounds nuw %struct.AVTXContext, ptr %76, i32 0, i32 5
  %78 = load ptr, ptr %77, align 8, !tbaa !68
  %79 = getelementptr inbounds %struct.AVTXContext, ptr %78, i64 0
  %80 = load ptr, ptr %10, align 8, !tbaa !60
  %81 = load ptr, ptr %9, align 8, !tbaa !60
  %82 = load i64, ptr %8, align 8, !tbaa !30
  call void %75(ptr noundef %79, ptr noundef %80, ptr noundef %81, i64 noundef %82)
  call void @llvm.lifetime.end.p0(i64 4, ptr %15) #10
  call void @llvm.lifetime.end.p0(i64 4, ptr %14) #10
  call void @llvm.lifetime.end.p0(i64 8, ptr %13) #10
  call void @llvm.lifetime.end.p0(i64 8, ptr %12) #10
  call void @llvm.lifetime.end.p0(i64 8, ptr %11) #10
  call void @llvm.lifetime.end.p0(i64 8, ptr %10) #10
  call void @llvm.lifetime.end.p0(i64 8, ptr %9) #10
  ret void
}