; Function Attrs: nounwind uwtable
define internal void @ff_tx_fft_inplace_float_c(ptr noundef readonly captures(none) %0, ptr noundef %1, ptr noundef %2, i64 noundef %3) #3 {
  %5 = getelementptr inbounds nuw i8, ptr %0, i64 32
  %6 = load ptr, ptr %5, align 8, !tbaa !56
  %7 = getelementptr inbounds nuw i8, ptr %6, i64 8
  %8 = load ptr, ptr %7, align 8, !tbaa !57
  %9 = getelementptr inbounds nuw i8, ptr %0, i64 8
  %10 = load ptr, ptr %9, align 8, !tbaa !57
  %11 = load i32, ptr %10, align 4, !tbaa !10
  br label %12

12:                                               ; preds = %24, %4
  %.pn = phi ptr [ %10, %4 ], [ %.025, %24 ]
  %.024 = phi i32 [ %11, %4 ], [ %25, %24 ]
  %13 = sext i32 %.024 to i64
  %14 = getelementptr inbounds %struct.AVComplexFloat, ptr %2, i64 %13
  %15 = load i64, ptr %14, align 4
  %16 = getelementptr inbounds i32, ptr %8, i64 %13
  %17 = load i32, ptr %16, align 4, !tbaa !10
  br label %18

18:                                               ; preds = %18, %12
  %.sroa.0.0 = phi i64 [ %15, %12 ], [ %21, %18 ]
  %.0 = phi i32 [ %17, %12 ], [ %23, %18 ]
  %19 = sext i32 %.0 to i64
  %20 = getelementptr inbounds %struct.AVComplexFloat, ptr %2, i64 %19
  %21 = load i64, ptr %20, align 4
  store i64 %.sroa.0.0, ptr %20, align 4
  %22 = getelementptr inbounds i32, ptr %8, i64 %19
  %23 = load i32, ptr %22, align 4, !tbaa !10
  %.not = icmp eq i32 %23, %.024
  br i1 %.not, label %24, label %18, !llvm.loop !61

24:                                               ; preds = %18
  %.025 = getelementptr inbounds nuw i8, ptr %.pn, i64 4
  store i64 %21, ptr %14, align 4
  %25 = load i32, ptr %.025, align 4, !tbaa !10
  %.not28 = icmp eq i32 %25, 0
  br i1 %.not28, label %26, label %12, !llvm.loop !62

26:                                               ; preds = %24
  %27 = getelementptr inbounds nuw i8, ptr %0, i64 40
  %28 = load ptr, ptr %27, align 8, !tbaa !4
  %29 = load ptr, ptr %5, align 8, !tbaa !56
  tail call void %28(ptr noundef %29, ptr noundef %1, ptr noundef nonnull %2, i64 noundef %3) #16
  ret void
}